; ModuleID = '35/2302.c'
source_filename = "35/2302.c"
target datalayout = "e-m:e-p270:32:32-p271:32:32-p272:64:64-i64:64-f80:128-n8:16:32:64-S128"
target triple = "x86_64-pc-linux-gnu"

@m = dso_local global i32 0, align 4
@n = dso_local global i32 0, align 4
@i = dso_local global i32 0, align 4
@k = dso_local global i32 0, align 4
@e = dso_local global i32 0, align 4
@t = dso_local global i32 0, align 4
@.str = private unnamed_addr constant [6 x i8] c"%d,%d\00", align 1
@.str.1 = private unnamed_addr constant [3 x i8] c"%d\00", align 1
@a = common dso_local global [1000 x [1000 x i32]] zeroinitializer, align 16
@b = common dso_local global [1000 x i32] zeroinitializer, align 16
@.str.2 = private unnamed_addr constant [7 x i8] c"%d+%d\0A\00", align 1
@.str.3 = private unnamed_addr constant [3 x i8] c"No\00", align 1

; Function Attrs: noinline nounwind uwtable
define dso_local i32 @main() #0 {
  %1 = alloca i32, align 4
  store i32 0, i32* %1, align 4
  %2 = call i32 (i8*, ...) @__isoc99_scanf(i8* getelementptr inbounds ([6 x i8], [6 x i8]* @.str, i64 0, i64 0), i32* @n, i32* @m)
  store i32 0, i32* @i, align 4
  br label %3

3:                                                ; preds = %24, %0
  %4 = load i32, i32* @i, align 4
  %5 = load i32, i32* @n, align 4
  %6 = icmp slt i32 %4, %5
  br i1 %6, label %7, label %27

7:                                                ; preds = %3
  store i32 0, i32* @k, align 4
  br label %8

8:                                                ; preds = %20, %7
  %9 = load i32, i32* @k, align 4
  %10 = load i32, i32* @m, align 4
  %11 = icmp slt i32 %9, %10
  br i1 %11, label %12, label %23

12:                                               ; preds = %8
  %13 = load i32, i32* @i, align 4
  %14 = sext i32 %13 to i64
  %15 = getelementptr inbounds [1000 x [1000 x i32]], [1000 x [1000 x i32]]* @a, i64 0, i64 %14
  %16 = load i32, i32* @k, align 4
  %17 = sext i32 %16 to i64
  %18 = getelementptr inbounds [1000 x i32], [1000 x i32]* %15, i64 0, i64 %17
  %19 = call i32 (i8*, ...) @__isoc99_scanf(i8* getelementptr inbounds ([3 x i8], [3 x i8]* @.str.1, i64 0, i64 0), i32* %18)
  br label %20

20:                                               ; preds = %12
  %21 = load i32, i32* @k, align 4
  %22 = add nsw i32 %21, 1
  store i32 %22, i32* @k, align 4
  br label %8

23:                                               ; preds = %8
  br label %24

24:                                               ; preds = %23
  %25 = load i32, i32* @i, align 4
  %26 = add nsw i32 %25, 1
  store i32 %26, i32* @i, align 4
  br label %3

27:                                               ; preds = %3
  %28 = load i32, i32* @n, align 4
  store i32 %28, i32* @e, align 4
  store i32 0, i32* @i, align 4
  br label %29

29:                                               ; preds = %65, %27
  %30 = load i32, i32* @i, align 4
  %31 = load i32, i32* @n, align 4
  %32 = icmp slt i32 %30, %31
  br i1 %32, label %33, label %68

33:                                               ; preds = %29
  store i32 0, i32* @t, align 4
  store i32 0, i32* @k, align 4
  br label %34

34:                                               ; preds = %61, %33
  %35 = load i32, i32* @k, align 4
  %36 = load i32, i32* @m, align 4
  %37 = icmp slt i32 %35, %36
  br i1 %37, label %38, label %64

38:                                               ; preds = %34
  %39 = load i32, i32* @i, align 4
  %40 = sext i32 %39 to i64
  %41 = getelementptr inbounds [1000 x [1000 x i32]], [1000 x [1000 x i32]]* @a, i64 0, i64 %40
  %42 = load i32, i32* @k, align 4
  %43 = sext i32 %42 to i64
  %44 = getelementptr inbounds [1000 x i32], [1000 x i32]* %41, i64 0, i64 %43
  %45 = load i32, i32* %44, align 4
  %46 = load i32, i32* @t, align 4
  %47 = icmp sgt i32 %45, %46
  br i1 %47, label %48, label %60

48:                                               ; preds = %38
  %49 = load i32, i32* @i, align 4
  %50 = sext i32 %49 to i64
  %51 = getelementptr inbounds [1000 x [1000 x i32]], [1000 x [1000 x i32]]* @a, i64 0, i64 %50
  %52 = load i32, i32* @k, align 4
  %53 = sext i32 %52 to i64
  %54 = getelementptr inbounds [1000 x i32], [1000 x i32]* %51, i64 0, i64 %53
  %55 = load i32, i32* %54, align 4
  store i32 %55, i32* @t, align 4
  %56 = load i32, i32* @k, align 4
  %57 = load i32, i32* @i, align 4
  %58 = sext i32 %57 to i64
  %59 = getelementptr inbounds [1000 x i32], [1000 x i32]* @b, i64 0, i64 %58
  store i32 %56, i32* %59, align 4
  br label %60

60:                                               ; preds = %48, %38
  br label %61

61:                                               ; preds = %60
  %62 = load i32, i32* @k, align 4
  %63 = add nsw i32 %62, 1
  store i32 %63, i32* @k, align 4
  br label %34

64:                                               ; preds = %34
  br label %65

65:                                               ; preds = %64
  %66 = load i32, i32* @i, align 4
  %67 = add nsw i32 %66, 1
  store i32 %67, i32* @i, align 4
  br label %29

68:                                               ; preds = %29
  store i32 0, i32* @i, align 4
  br label %69

69:                                               ; preds = %111, %68
  %70 = load i32, i32* @i, align 4
  %71 = load i32, i32* @n, align 4
  %72 = icmp slt i32 %70, %71
  br i1 %72, label %73, label %114

73:                                               ; preds = %69
  store i32 0, i32* @k, align 4
  br label %74

74:                                               ; preds = %107, %73
  %75 = load i32, i32* @k, align 4
  %76 = load i32, i32* @n, align 4
  %77 = icmp slt i32 %75, %76
  br i1 %77, label %78, label %110

78:                                               ; preds = %74
  %79 = load i32, i32* @i, align 4
  %80 = sext i32 %79 to i64
  %81 = getelementptr inbounds [1000 x [1000 x i32]], [1000 x [1000 x i32]]* @a, i64 0, i64 %80
  %82 = load i32, i32* @i, align 4
  %83 = sext i32 %82 to i64
  %84 = getelementptr inbounds [1000 x i32], [1000 x i32]* @b, i64 0, i64 %83
  %85 = load i32, i32* %84, align 4
  %86 = sext i32 %85 to i64
  %87 = getelementptr inbounds [1000 x i32], [1000 x i32]* %81, i64 0, i64 %86
  %88 = load i32, i32* %87, align 4
  %89 = load i32, i32* @k, align 4
  %90 = sext i32 %89 to i64
  %91 = getelementptr inbounds [1000 x [1000 x i32]], [1000 x [1000 x i32]]* @a, i64 0, i64 %90
  %92 = load i32, i32* @i, align 4
  %93 = sext i32 %92 to i64
  %94 = getelementptr inbounds [1000 x i32], [1000 x i32]* @b, i64 0, i64 %93
  %95 = load i32, i32* %94, align 4
  %96 = sext i32 %95 to i64
  %97 = getelementptr inbounds [1000 x i32], [1000 x i32]* %91, i64 0, i64 %96
  %98 = load i32, i32* %97, align 4
  %99 = icmp sgt i32 %88, %98
  br i1 %99, label %100, label %106

100:                                              ; preds = %78
  %101 = load i32, i32* @i, align 4
  %102 = sext i32 %101 to i64
  %103 = getelementptr inbounds [1000 x i32], [1000 x i32]* @b, i64 0, i64 %102
  store i32 9999, i32* %103, align 4
  %104 = load i32, i32* @e, align 4
  %105 = add nsw i32 %104, -1
  store i32 %105, i32* @e, align 4
  br label %110

106:                                              ; preds = %78
  br label %107

107:                                              ; preds = %106
  %108 = load i32, i32* @k, align 4
  %109 = add nsw i32 %108, 1
  store i32 %109, i32* @k, align 4
  br label %74

110:                                              ; preds = %100, %74
  br label %111

111:                                              ; preds = %110
  %112 = load i32, i32* @i, align 4
  %113 = add nsw i32 %112, 1
  store i32 %113, i32* @i, align 4
  br label %69

114:                                              ; preds = %69
  store i32 0, i32* @i, align 4
  br label %115

115:                                              ; preds = %133, %114
  %116 = load i32, i32* @i, align 4
  %117 = load i32, i32* @n, align 4
  %118 = icmp slt i32 %116, %117
  br i1 %118, label %119, label %136

119:                                              ; preds = %115
  %120 = load i32, i32* @i, align 4
  %121 = sext i32 %120 to i64
  %122 = getelementptr inbounds [1000 x i32], [1000 x i32]* @b, i64 0, i64 %121
  %123 = load i32, i32* %122, align 4
  %124 = icmp ne i32 %123, 9999
  br i1 %124, label %125, label %132

125:                                              ; preds = %119
  %126 = load i32, i32* @i, align 4
  %127 = load i32, i32* @i, align 4
  %128 = sext i32 %127 to i64
  %129 = getelementptr inbounds [1000 x i32], [1000 x i32]* @b, i64 0, i64 %128
  %130 = load i32, i32* %129, align 4
  %131 = call i32 (i8*, ...) @printf(i8* getelementptr inbounds ([7 x i8], [7 x i8]* @.str.2, i64 0, i64 0), i32 %126, i32 %130)
  br label %132

132:                                              ; preds = %125, %119
  br label %133

133:                                              ; preds = %132
  %134 = load i32, i32* @i, align 4
  %135 = add nsw i32 %134, 1
  store i32 %135, i32* @i, align 4
  br label %115

136:                                              ; preds = %115
  %137 = load i32, i32* @e, align 4
  %138 = icmp eq i32 %137, 0
  br i1 %138, label %139, label %141

139:                                              ; preds = %136
  %140 = call i32 (i8*, ...) @printf(i8* getelementptr inbounds ([3 x i8], [3 x i8]* @.str.3, i64 0, i64 0))
  br label %141

141:                                              ; preds = %139, %136
  ret i32 0
}

declare dso_local i32 @__isoc99_scanf(i8*, ...) #1

declare dso_local i32 @printf(i8*, ...) #1


!llvm.module.flags = !{!0}
!llvm.ident = !{!1}

!0 = !{i32 1, !"wchar_size", i32 4}
!1 = !{!"clang version 10.0.0-4ubuntu1 "}
